target datalayout = "e-m:e-p270:32:32-p271:32:32-p272:64:64-i64:64-i128:128-f80:128-n8:16:32:64-S128"
target triple = "x86_64-pc-linux-gnu"

@proto_register_nasdaq_itch.ett = internal global [1 x ptr] [ptr @ett_nasdaq_itch], align 8
@.str.58 = private unnamed_addr constant [22 x i8] c"Nasdaq TotalView-ITCH\00", align 1
@.str.59 = private unnamed_addr constant [12 x i8] c"NASDAQ-ITCH\00", align 1
@.str.60 = private unnamed_addr constant [12 x i8] c"nasdaq_itch\00", align 1
@proto_nasdaq_itch = internal global i32 0, align 4
@.str.61 = private unnamed_addr constant [6 x i8] c"chi_x\00", align 1
@.str.62 = private unnamed_addr constant [24 x i8] c"Decode Chi X extensions\00", align 1
@.str.63 = private unnamed_addr constant [66 x i8] c"Whether the Nasdaq ITCH dissector should decode Chi X extensions.\00", align 1
@nasdaq_itch_chi_x = internal global i8 1, align 1
@.str.64 = private unnamed_addr constant [12 x i8] c"nasdaq-itch\00", align 1
@nasdaq_itch_handle = internal global ptr null, align 8

; Function Attrs: null_pointer_is_valid sspstrong uwtable
define hidden void @proto_register_nasdaq_itch() #0 {
  %1 = alloca ptr, align 8
  call void @llvm.lifetime.start.p0(i64 8, ptr %1) #6
  %2 = call i32 @proto_register_protocol(ptr noundef @.str.58, ptr noundef @.str.59, ptr noundef @.str.60)
  store i32 %2, ptr @proto_nasdaq_itch, align 4
  %3 = load i32, ptr @proto_nasdaq_itch, align 4
  call void @proto_register_field_array(i32 noundef %3, ptr noundef @proto_register_nasdaq_itch.hf, i32 noundef 25)
  call void @proto_register_subtree_array(ptr noundef @proto_register_nasdaq_itch.ett, i32 noundef 1)
  %4 = load i32, ptr @proto_nasdaq_itch, align 4
  %5 = call ptr @prefs_register_protocol(i32 noundef %4, ptr noundef null)
  store ptr %5, ptr %1, align 8
  %6 = load ptr, ptr %1, align 8
  call void @prefs_register_bool_preference(ptr noundef %6, ptr noundef @.str.61, ptr noundef @.str.62, ptr noundef @.str.63, ptr noundef @nasdaq_itch_chi_x)
  %7 = load i32, ptr @proto_nasdaq_itch, align 4
  %8 = call ptr @register_dissector(ptr noundef @.str.64, ptr noundef @dissect_nasdaq_itch, i32 noundef %7)
  store ptr %8, ptr @nasdaq_itch_handle, align 8
  call void @llvm.lifetime.end.p0(i64 8, ptr %1) #6
  ret void
}