; Function Attrs: null_pointer_is_valid sspstrong uwtable
define hidden void @proto_register_nasdaq_itch() local_unnamed_addr #0 {
  %1 = tail call i32 @proto_register_protocol(ptr noundef nonnull @.str.58, ptr noundef nonnull @.str.59, ptr noundef nonnull @.str.60)
  store i32 %1, ptr @proto_nasdaq_itch, align 4
  tail call void @proto_register_field_array(i32 noundef %1, ptr noundef nonnull @proto_register_nasdaq_itch.hf, i32 noundef 25)
  tail call void @proto_register_subtree_array(ptr noundef nonnull @proto_register_nasdaq_itch.ett, i32 noundef 1)
  %2 = load i32, ptr @proto_nasdaq_itch, align 4
  %3 = tail call ptr @prefs_register_protocol(i32 noundef %2, ptr noundef null)
  tail call void @prefs_register_bool_preference(ptr noundef %3, ptr noundef nonnull @.str.61, ptr noundef nonnull @.str.62, ptr noundef nonnull @.str.63, ptr noundef nonnull @nasdaq_itch_chi_x)
  %4 = load i32, ptr @proto_nasdaq_itch, align 4
  %5 = tail call ptr @register_dissector(ptr noundef nonnull @.str.64, ptr noundef nonnull @dissect_nasdaq_itch, i32 noundef %4)
  store ptr %5, ptr @nasdaq_itch_handle, align 8
  ret void
}